target datalayout = "e-m:e-p270:32:32-p271:32:32-p272:64:64-i64:64-i128:128-f80:128-n8:16:32:64-S128"
target triple = "x86_64-pc-linux-gnu"

; Function Attrs: mustprogress nounwind uwtable
define hidden void @_Z5resetjPj(i32 noundef %0, ptr noundef %1) #4 {
  %3 = alloca i32, align 4
  %4 = alloca ptr, align 8
  %5 = alloca i32, align 4
  store i32 %0, ptr %3, align 4, !tbaa !3
  store ptr %1, ptr %4, align 8, !tbaa !7
  call void @llvm.lifetime.start.p0(i64 4, ptr %5) #3
  store i32 0, ptr %5, align 4, !tbaa !3
  br label %6

6:                                                ; preds = %16, %2
  %7 = load i32, ptr %5, align 4, !tbaa !3
  %8 = load i32, ptr %3, align 4, !tbaa !3
  %9 = icmp ult i32 %7, %8
  br i1 %9, label %11, label %10

10:                                               ; preds = %6
  call void @llvm.lifetime.end.p0(i64 4, ptr %5) #3
  br label %19

11:                                               ; preds = %6
  %12 = load ptr, ptr %4, align 8, !tbaa !7
  %13 = load i32, ptr %5, align 4, !tbaa !3
  %14 = zext i32 %13 to i64
  %15 = getelementptr inbounds nuw i32, ptr %12, i64 %14
  store i32 0, ptr %15, align 4, !tbaa !3
  br label %16

16:                                               ; preds = %11
  %17 = load i32, ptr %5, align 4, !tbaa !3
  %18 = add i32 %17, 1
  store i32 %18, ptr %5, align 4, !tbaa !3
  br label %6, !llvm.loop !17

19:                                               ; preds = %10
  ret void
}

; Function Attrs: mustprogress nounwind uwtable
define hidden void @_Z3shrjPKjjjPj(i32 noundef %0, ptr noundef %1, i32 noundef %2, i32 noundef %3, ptr noundef %4) #4 {
  %6 = alloca i32, align 4
  %7 = alloca ptr, align 8
  %8 = alloca i32, align 4
  %9 = alloca i32, align 4
  %10 = alloca ptr, align 8
  %11 = alloca i32, align 4
  %12 = alloca i32, align 4
  %13 = alloca i32, align 4
  %14 = alloca i32, align 4
  %15 = alloca i32, align 4
  %16 = alloca i32, align 4
  %17 = alloca i32, align 4
  %18 = alloca i32, align 4
  %19 = alloca i32, align 4
  %20 = alloca i32, align 4
  %21 = alloca i32, align 4
  store i32 %0, ptr %6, align 4, !tbaa !3
  store ptr %1, ptr %7, align 8, !tbaa !7
  store i32 %2, ptr %8, align 4, !tbaa !3
  store i32 %3, ptr %9, align 4, !tbaa !3
  store ptr %4, ptr %10, align 8, !tbaa !7
  call void @llvm.lifetime.start.p0(i64 4, ptr %11) #3
  %22 = load i32, ptr %8, align 4, !tbaa !3
  %23 = zext i32 %22 to i64
  %24 = udiv i64 %23, 32
  %25 = trunc i64 %24 to i32
  store i32 %25, ptr %11, align 4, !tbaa !3
  %26 = load i32, ptr %11, align 4, !tbaa !3
  %27 = load i32, ptr %6, align 4, !tbaa !3
  %28 = icmp uge i32 %26, %27
  br i1 %28, label %29, label %32

29:                                               ; preds = %5
  %30 = load i32, ptr %9, align 4, !tbaa !3
  %31 = load ptr, ptr %10, align 8, !tbaa !7
  call void @_Z5resetjPj(i32 noundef %30, ptr noundef %31)
  store i32 1, ptr %12, align 4
  br label %262

32:                                               ; preds = %5
  call void @llvm.lifetime.start.p0(i64 4, ptr %13) #3
  %33 = load i32, ptr %8, align 4, !tbaa !3
  %34 = zext i32 %33 to i64
  %35 = urem i64 %34, 32
  %36 = trunc i64 %35 to i32
  store i32 %36, ptr %13, align 4, !tbaa !3
  call void @llvm.lifetime.start.p0(i64 4, ptr %14) #3
  %37 = load i32, ptr %13, align 4, !tbaa !3
  %38 = zext i32 %37 to i64
  %39 = sub i64 32, %38
  %40 = trunc i64 %39 to i32
  store i32 %40, ptr %14, align 4, !tbaa !3
  call void @llvm.lifetime.start.p0(i64 4, ptr %15) #3
  %41 = load i32, ptr %6, align 4, !tbaa !3
  %42 = load i32, ptr %11, align 4, !tbaa !3
  %43 = sub i32 %41, %42
  store i32 %43, ptr %15, align 4, !tbaa !3
  %44 = load i32, ptr %11, align 4, !tbaa !3
  %45 = icmp ugt i32 %44, 0
  br i1 %45, label %46, label %163

46:                                               ; preds = %32
  call void @llvm.lifetime.start.p0(i64 4, ptr %16) #3
  store i32 0, ptr %16, align 4, !tbaa !3
  call void @llvm.lifetime.start.p0(i64 4, ptr %17) #3
  %47 = load i32, ptr %11, align 4, !tbaa !3
  store i32 %47, ptr %17, align 4, !tbaa !3
  %48 = load i32, ptr %13, align 4, !tbaa !3
  %49 = icmp ne i32 %48, 0
  br i1 %49, label %50, label %135

50:                                               ; preds = %46
  call void @llvm.lifetime.start.p0(i64 4, ptr %18) #3
  %51 = load i32, ptr %15, align 4, !tbaa !3
  store i32 %51, ptr %18, align 4, !tbaa !3
  %52 = load i32, ptr %15, align 4, !tbaa !3
  %53 = load i32, ptr %9, align 4, !tbaa !3
  %54 = icmp ugt i32 %52, %53
  br i1 %54, label %55, label %57

55:                                               ; preds = %50
  %56 = load i32, ptr %9, align 4, !tbaa !3
  store i32 %56, ptr %18, align 4, !tbaa !3
  br label %57

57:                                               ; preds = %55, %50
  br label %58

58:                                               ; preds = %94, %57
  %59 = load i32, ptr %16, align 4, !tbaa !3
  %60 = load i32, ptr %18, align 4, !tbaa !3
  %61 = sub i32 %60, 1
  %62 = icmp ult i32 %59, %61
  br i1 %62, label %63, label %99

63:                                               ; preds = %58
  %64 = load ptr, ptr %7, align 8, !tbaa !7
  %65 = load i32, ptr %17, align 4, !tbaa !3
  %66 = zext i32 %65 to i64
  %67 = getelementptr inbounds nuw i32, ptr %64, i64 %66
  %68 = load i32, ptr %67, align 4, !tbaa !3
  %69 = load ptr, ptr %10, align 8, !tbaa !7
  %70 = load i32, ptr %16, align 4, !tbaa !3
  %71 = zext i32 %70 to i64
  %72 = getelementptr inbounds nuw i32, ptr %69, i64 %71
  store i32 %68, ptr %72, align 4, !tbaa !3
  %73 = load i32, ptr %13, align 4, !tbaa !3
  %74 = load ptr, ptr %10, align 8, !tbaa !7
  %75 = load i32, ptr %16, align 4, !tbaa !3
  %76 = zext i32 %75 to i64
  %77 = getelementptr inbounds nuw i32, ptr %74, i64 %76
  %78 = load i32, ptr %77, align 4, !tbaa !3
  %79 = lshr i32 %78, %73
  store i32 %79, ptr %77, align 4, !tbaa !3
  %80 = load ptr, ptr %7, align 8, !tbaa !7
  %81 = load i32, ptr %17, align 4, !tbaa !3
  %82 = add i32 %81, 1
  %83 = zext i32 %82 to i64
  %84 = getelementptr inbounds nuw i32, ptr %80, i64 %83
  %85 = load i32, ptr %84, align 4, !tbaa !3
  %86 = load i32, ptr %14, align 4, !tbaa !3
  %87 = shl i32 %85, %86
  %88 = load ptr, ptr %10, align 8, !tbaa !7
  %89 = load i32, ptr %16, align 4, !tbaa !3
  %90 = zext i32 %89 to i64
  %91 = getelementptr inbounds nuw i32, ptr %88, i64 %90
  %92 = load i32, ptr %91, align 4, !tbaa !3
  %93 = or i32 %92, %87
  store i32 %93, ptr %91, align 4, !tbaa !3
  br label %94

94:                                               ; preds = %63
  %95 = load i32, ptr %16, align 4, !tbaa !3
  %96 = add i32 %95, 1
  store i32 %96, ptr %16, align 4, !tbaa !3
  %97 = load i32, ptr %17, align 4, !tbaa !3
  %98 = add i32 %97, 1
  store i32 %98, ptr %17, align 4, !tbaa !3
  br label %58, !llvm.loop !28

99:                                               ; preds = %58
  %100 = load ptr, ptr %7, align 8, !tbaa !7
  %101 = load i32, ptr %17, align 4, !tbaa !3
  %102 = zext i32 %101 to i64
  %103 = getelementptr inbounds nuw i32, ptr %100, i64 %102
  %104 = load i32, ptr %103, align 4, !tbaa !3
  %105 = load ptr, ptr %10, align 8, !tbaa !7
  %106 = load i32, ptr %16, align 4, !tbaa !3
  %107 = zext i32 %106 to i64
  %108 = getelementptr inbounds nuw i32, ptr %105, i64 %107
  store i32 %104, ptr %108, align 4, !tbaa !3
  %109 = load i32, ptr %13, align 4, !tbaa !3
  %110 = load ptr, ptr %10, align 8, !tbaa !7
  %111 = load i32, ptr %16, align 4, !tbaa !3
  %112 = zext i32 %111 to i64
  %113 = getelementptr inbounds nuw i32, ptr %110, i64 %112
  %114 = load i32, ptr %113, align 4, !tbaa !3
  %115 = lshr i32 %114, %109
  store i32 %115, ptr %113, align 4, !tbaa !3
  %116 = load i32, ptr %15, align 4, !tbaa !3
  %117 = load i32, ptr %9, align 4, !tbaa !3
  %118 = icmp ugt i32 %116, %117
  br i1 %118, label %119, label %134

119:                                              ; preds = %99
  %120 = load ptr, ptr %7, align 8, !tbaa !7
  %121 = load i32, ptr %17, align 4, !tbaa !3
  %122 = add i32 %121, 1
  %123 = zext i32 %122 to i64
  %124 = getelementptr inbounds nuw i32, ptr %120, i64 %123
  %125 = load i32, ptr %124, align 4, !tbaa !3
  %126 = load i32, ptr %14, align 4, !tbaa !3
  %127 = shl i32 %125, %126
  %128 = load ptr, ptr %10, align 8, !tbaa !7
  %129 = load i32, ptr %16, align 4, !tbaa !3
  %130 = zext i32 %129 to i64
  %131 = getelementptr inbounds nuw i32, ptr %128, i64 %130
  %132 = load i32, ptr %131, align 4, !tbaa !3
  %133 = or i32 %132, %127
  store i32 %133, ptr %131, align 4, !tbaa !3
  br label %134

134:                                              ; preds = %119, %99
  call void @llvm.lifetime.end.p0(i64 4, ptr %18) #3
  br label %162

135:                                              ; preds = %46
  %136 = load i32, ptr %15, align 4, !tbaa !3
  %137 = load i32, ptr %9, align 4, !tbaa !3
  %138 = icmp ugt i32 %136, %137
  br i1 %138, label %139, label %141

139:                                              ; preds = %135
  %140 = load i32, ptr %9, align 4, !tbaa !3
  store i32 %140, ptr %15, align 4, !tbaa !3
  br label %141

141:                                              ; preds = %139, %135
  br label %142

142:                                              ; preds = %156, %141
  %143 = load i32, ptr %16, align 4, !tbaa !3
  %144 = load i32, ptr %15, align 4, !tbaa !3
  %145 = icmp ult i32 %143, %144
  br i1 %145, label %146, label %161

146:                                              ; preds = %142
  %147 = load ptr, ptr %7, align 8, !tbaa !7
  %148 = load i32, ptr %17, align 4, !tbaa !3
  %149 = zext i32 %148 to i64
  %150 = getelementptr inbounds nuw i32, ptr %147, i64 %149
  %151 = load i32, ptr %150, align 4, !tbaa !3
  %152 = load ptr, ptr %10, align 8, !tbaa !7
  %153 = load i32, ptr %16, align 4, !tbaa !3
  %154 = zext i32 %153 to i64
  %155 = getelementptr inbounds nuw i32, ptr %152, i64 %154
  store i32 %151, ptr %155, align 4, !tbaa !3
  br label %156

156:                                              ; preds = %146
  %157 = load i32, ptr %16, align 4, !tbaa !3
  %158 = add i32 %157, 1
  store i32 %158, ptr %16, align 4, !tbaa !3
  %159 = load i32, ptr %17, align 4, !tbaa !3
  %160 = add i32 %159, 1
  store i32 %160, ptr %17, align 4, !tbaa !3
  br label %142, !llvm.loop !29

161:                                              ; preds = %142
  br label %162

162:                                              ; preds = %161, %134
  call void @llvm.lifetime.end.p0(i64 4, ptr %17) #3
  call void @llvm.lifetime.end.p0(i64 4, ptr %16) #3
  br label %246

163:                                              ; preds = %32
  call void @llvm.lifetime.start.p0(i64 4, ptr %19) #3
  %164 = load i32, ptr %15, align 4, !tbaa !3
  store i32 %164, ptr %19, align 4, !tbaa !3
  %165 = load i32, ptr %15, align 4, !tbaa !3
  %166 = load i32, ptr %9, align 4, !tbaa !3
  %167 = icmp ugt i32 %165, %166
  br i1 %167, label %168, label %170

168:                                              ; preds = %163
  %169 = load i32, ptr %9, align 4, !tbaa !3
  store i32 %169, ptr %19, align 4, !tbaa !3
  br label %170

170:                                              ; preds = %168, %163
  call void @llvm.lifetime.start.p0(i64 4, ptr %20) #3
  store i32 0, ptr %20, align 4, !tbaa !3
  br label %171

171:                                              ; preds = %207, %170
  %172 = load i32, ptr %20, align 4, !tbaa !3
  %173 = load i32, ptr %19, align 4, !tbaa !3
  %174 = sub i32 %173, 1
  %175 = icmp ult i32 %172, %174
  br i1 %175, label %176, label %210

176:                                              ; preds = %171
  %177 = load ptr, ptr %7, align 8, !tbaa !7
  %178 = load i32, ptr %20, align 4, !tbaa !3
  %179 = zext i32 %178 to i64
  %180 = getelementptr inbounds nuw i32, ptr %177, i64 %179
  %181 = load i32, ptr %180, align 4, !tbaa !3
  %182 = load ptr, ptr %10, align 8, !tbaa !7
  %183 = load i32, ptr %20, align 4, !tbaa !3
  %184 = zext i32 %183 to i64
  %185 = getelementptr inbounds nuw i32, ptr %182, i64 %184
  store i32 %181, ptr %185, align 4, !tbaa !3
  %186 = load i32, ptr %13, align 4, !tbaa !3
  %187 = load ptr, ptr %10, align 8, !tbaa !7
  %188 = load i32, ptr %20, align 4, !tbaa !3
  %189 = zext i32 %188 to i64
  %190 = getelementptr inbounds nuw i32, ptr %187, i64 %189
  %191 = load i32, ptr %190, align 4, !tbaa !3
  %192 = lshr i32 %191, %186
  store i32 %192, ptr %190, align 4, !tbaa !3
  %193 = load ptr, ptr %7, align 8, !tbaa !7
  %194 = load i32, ptr %20, align 4, !tbaa !3
  %195 = add i32 %194, 1
  %196 = zext i32 %195 to i64
  %197 = getelementptr inbounds nuw i32, ptr %193, i64 %196
  %198 = load i32, ptr %197, align 4, !tbaa !3
  %199 = load i32, ptr %14, align 4, !tbaa !3
  %200 = shl i32 %198, %199
  %201 = load ptr, ptr %10, align 8, !tbaa !7
  %202 = load i32, ptr %20, align 4, !tbaa !3
  %203 = zext i32 %202 to i64
  %204 = getelementptr inbounds nuw i32, ptr %201, i64 %203
  %205 = load i32, ptr %204, align 4, !tbaa !3
  %206 = or i32 %205, %200
  store i32 %206, ptr %204, align 4, !tbaa !3
  br label %207

207:                                              ; preds = %176
  %208 = load i32, ptr %20, align 4, !tbaa !3
  %209 = add i32 %208, 1
  store i32 %209, ptr %20, align 4, !tbaa !3
  br label %171, !llvm.loop !30

210:                                              ; preds = %171
  %211 = load ptr, ptr %7, align 8, !tbaa !7
  %212 = load i32, ptr %20, align 4, !tbaa !3
  %213 = zext i32 %212 to i64
  %214 = getelementptr inbounds nuw i32, ptr %211, i64 %213
  %215 = load i32, ptr %214, align 4, !tbaa !3
  %216 = load ptr, ptr %10, align 8, !tbaa !7
  %217 = load i32, ptr %20, align 4, !tbaa !3
  %218 = zext i32 %217 to i64
  %219 = getelementptr inbounds nuw i32, ptr %216, i64 %218
  store i32 %215, ptr %219, align 4, !tbaa !3
  %220 = load i32, ptr %13, align 4, !tbaa !3
  %221 = load ptr, ptr %10, align 8, !tbaa !7
  %222 = load i32, ptr %20, align 4, !tbaa !3
  %223 = zext i32 %222 to i64
  %224 = getelementptr inbounds nuw i32, ptr %221, i64 %223
  %225 = load i32, ptr %224, align 4, !tbaa !3
  %226 = lshr i32 %225, %220
  store i32 %226, ptr %224, align 4, !tbaa !3
  %227 = load i32, ptr %15, align 4, !tbaa !3
  %228 = load i32, ptr %9, align 4, !tbaa !3
  %229 = icmp ugt i32 %227, %228
  br i1 %229, label %230, label %245

230:                                              ; preds = %210
  %231 = load ptr, ptr %7, align 8, !tbaa !7
  %232 = load i32, ptr %20, align 4, !tbaa !3
  %233 = add i32 %232, 1
  %234 = zext i32 %233 to i64
  %235 = getelementptr inbounds nuw i32, ptr %231, i64 %234
  %236 = load i32, ptr %235, align 4, !tbaa !3
  %237 = load i32, ptr %14, align 4, !tbaa !3
  %238 = shl i32 %236, %237
  %239 = load ptr, ptr %10, align 8, !tbaa !7
  %240 = load i32, ptr %20, align 4, !tbaa !3
  %241 = zext i32 %240 to i64
  %242 = getelementptr inbounds nuw i32, ptr %239, i64 %241
  %243 = load i32, ptr %242, align 4, !tbaa !3
  %244 = or i32 %243, %238
  store i32 %244, ptr %242, align 4, !tbaa !3
  br label %245

245:                                              ; preds = %230, %210
  call void @llvm.lifetime.end.p0(i64 4, ptr %20) #3
  call void @llvm.lifetime.end.p0(i64 4, ptr %19) #3
  br label %246

246:                                              ; preds = %245, %162
  call void @llvm.lifetime.start.p0(i64 4, ptr %21) #3
  %247 = load i32, ptr %15, align 4, !tbaa !3
  store i32 %247, ptr %21, align 4, !tbaa !3
  br label %248

248:                                              ; preds = %258, %246
  %249 = load i32, ptr %21, align 4, !tbaa !3
  %250 = load i32, ptr %9, align 4, !tbaa !3
  %251 = icmp ult i32 %249, %250
  br i1 %251, label %253, label %252

252:                                              ; preds = %248
  store i32 11, ptr %12, align 4
  call void @llvm.lifetime.end.p0(i64 4, ptr %21) #3
  br label %261

253:                                              ; preds = %248
  %254 = load ptr, ptr %10, align 8, !tbaa !7
  %255 = load i32, ptr %21, align 4, !tbaa !3
  %256 = zext i32 %255 to i64
  %257 = getelementptr inbounds nuw i32, ptr %254, i64 %256
  store i32 0, ptr %257, align 4, !tbaa !3
  br label %258

258:                                              ; preds = %253
  %259 = load i32, ptr %21, align 4, !tbaa !3
  %260 = add i32 %259, 1
  store i32 %260, ptr %21, align 4, !tbaa !3
  br label %248, !llvm.loop !31

261:                                              ; preds = %252
  call void @llvm.lifetime.end.p0(i64 4, ptr %15) #3
  call void @llvm.lifetime.end.p0(i64 4, ptr %14) #3
  call void @llvm.lifetime.end.p0(i64 4, ptr %13) #3
  store i32 0, ptr %12, align 4
  br label %262

262:                                              ; preds = %261, %29
  call void @llvm.lifetime.end.p0(i64 4, ptr %11) #3
  %263 = load i32, ptr %12, align 4
  switch i32 %263, label %265 [
    i32 0, label %264
    i32 1, label %264
  ]

264:                                              ; preds = %262, %262
  ret void

265:                                              ; preds = %262
  unreachable
}