; Function Attrs: mustprogress nofree norecurse nosync nounwind memory(argmem: readwrite) uwtable
define hidden void @_Z3shrjPKjjjPj(i32 noundef %0, ptr noundef readonly captures(none) %1, i32 noundef %2, i32 noundef %3, ptr noundef writeonly captures(none) %4) local_unnamed_addr #6 {
  %6 = lshr i32 %2, 5
  %.not = icmp ult i32 %6, %0
  br i1 %.not, label %10, label %7

7:                                                ; preds = %5
  %.not.i = icmp eq i32 %3, 0
  br i1 %.not.i, label %_Z5resetjPj.exit, label %.lr.ph.preheader.i

.lr.ph.preheader.i:                               ; preds = %7
  %8 = zext i32 %3 to i64
  %9 = shl nuw nsw i64 %8, 2
  tail call void @llvm.memset.p0.i64(ptr align 4 %4, i8 0, i64 %9, i1 false), !tbaa !3
  br label %_Z5resetjPj.exit

10:                                               ; preds = %5
  %11 = and i32 %2, 31
  %narrow = sub nuw nsw i32 32, %11
  %12 = sub nuw i32 %0, %6
  %.not112 = icmp ult i32 %2, 32
  br i1 %.not112, label %46, label %13

13:                                               ; preds = %10
  %.not113 = icmp eq i32 %11, 0
  br i1 %.not113, label %40, label %14

14:                                               ; preds = %13
  %15 = icmp ugt i32 %12, %3
  %spec.select = tail call i32 @llvm.umin.i32(i32 %12, i32 %3)
  %16 = add i32 %spec.select, -1
  %.not131 = icmp eq i32 %16, 0
  br i1 %.not131, label %.._crit_edge_crit_edge, label %.lr.ph.preheader

.._crit_edge_crit_edge:                           ; preds = %14
  %.pre = zext nneg i32 %6 to i64
  br label %._crit_edge

.lr.ph.preheader:                                 ; preds = %14
  %wide.trip.count = zext i32 %16 to i64
  br label %.lr.ph

.lr.ph:                                           ; preds = %.lr.ph.preheader, %.lr.ph
  %indvars.iv = phi i64 [ 0, %.lr.ph.preheader ], [ %indvars.iv.next, %.lr.ph ]
  %.098117 = phi i32 [ %6, %.lr.ph.preheader ], [ %22, %.lr.ph ]
  %17 = zext i32 %.098117 to i64
  %18 = getelementptr inbounds nuw i32, ptr %1, i64 %17
  %19 = load i32, ptr %18, align 4, !tbaa !3
  %20 = getelementptr inbounds nuw i32, ptr %4, i64 %indvars.iv
  %21 = lshr i32 %19, %11
  store i32 %21, ptr %20, align 4, !tbaa !3
  %22 = add i32 %.098117, 1
  %23 = zext i32 %22 to i64
  %24 = getelementptr inbounds nuw i32, ptr %1, i64 %23
  %25 = load i32, ptr %24, align 4, !tbaa !3
  %26 = shl i32 %25, %narrow
  %27 = or disjoint i32 %26, %21
  store i32 %27, ptr %20, align 4, !tbaa !3
  %indvars.iv.next = add nuw nsw i64 %indvars.iv, 1
  %exitcond.not = icmp eq i64 %indvars.iv.next, %wide.trip.count
  br i1 %exitcond.not, label %._crit_edge.loopexit, label %.lr.ph, !llvm.loop !19

._crit_edge.loopexit:                             ; preds = %.lr.ph
  %28 = zext i32 %16 to i64
  br label %._crit_edge

._crit_edge:                                      ; preds = %.._crit_edge_crit_edge, %._crit_edge.loopexit
  %.pre-phi = phi i64 [ %.pre, %.._crit_edge_crit_edge ], [ %23, %._crit_edge.loopexit ]
  %.099.lcssa = phi i64 [ 0, %.._crit_edge_crit_edge ], [ %28, %._crit_edge.loopexit ]
  %.098.lcssa = phi i32 [ %6, %.._crit_edge_crit_edge ], [ %22, %._crit_edge.loopexit ]
  %29 = getelementptr inbounds nuw i32, ptr %1, i64 %.pre-phi
  %30 = load i32, ptr %29, align 4, !tbaa !3
  %31 = getelementptr inbounds nuw i32, ptr %4, i64 %.099.lcssa
  %32 = lshr i32 %30, %11
  store i32 %32, ptr %31, align 4, !tbaa !3
  br i1 %15, label %33, label %.loopexit

33:                                               ; preds = %._crit_edge
  %34 = add i32 %.098.lcssa, 1
  %35 = zext i32 %34 to i64
  %36 = getelementptr inbounds nuw i32, ptr %1, i64 %35
  %37 = load i32, ptr %36, align 4, !tbaa !3
  %38 = shl i32 %37, %narrow
  %39 = or disjoint i32 %38, %32
  store i32 %39, ptr %31, align 4, !tbaa !3
  br label %.loopexit

40:                                               ; preds = %13
  %spec.select114 = tail call i32 @llvm.umin.i32(i32 %12, i32 %3)
  %.not132 = icmp eq i32 %spec.select114, 0
  br i1 %.not132, label %.loopexit, label %.lr.ph122.preheader

.lr.ph122.preheader:                              ; preds = %40
  %wide.trip.count140 = zext i32 %spec.select114 to i64
  br label %.lr.ph122

.lr.ph122:                                        ; preds = %.lr.ph122.preheader, %.lr.ph122
  %indvars.iv137 = phi i64 [ 0, %.lr.ph122.preheader ], [ %indvars.iv.next138, %.lr.ph122 ]
  %.1120 = phi i32 [ %6, %.lr.ph122.preheader ], [ %45, %.lr.ph122 ]
  %41 = zext i32 %.1120 to i64
  %42 = getelementptr inbounds nuw i32, ptr %1, i64 %41
  %43 = load i32, ptr %42, align 4, !tbaa !3
  %44 = getelementptr inbounds nuw i32, ptr %4, i64 %indvars.iv137
  store i32 %43, ptr %44, align 4, !tbaa !3
  %indvars.iv.next138 = add nuw nsw i64 %indvars.iv137, 1
  %45 = add i32 %.1120, 1
  %exitcond141.not = icmp eq i64 %indvars.iv.next138, %wide.trip.count140
  br i1 %exitcond141.not, label %.loopexit, label %.lr.ph122, !llvm.loop !20

46:                                               ; preds = %10
  %47 = icmp ugt i32 %12, %3
  %spec.select115 = tail call i32 @llvm.umin.i32(i32 %12, i32 %3)
  %48 = add i32 %spec.select115, -1
  %.not133 = icmp eq i32 %48, 0
  br i1 %.not133, label %._crit_edge126, label %.lr.ph125.preheader

.lr.ph125.preheader:                              ; preds = %46
  %wide.trip.count145 = zext i32 %48 to i64
  br label %.lr.ph125

.lr.ph125:                                        ; preds = %.lr.ph125.preheader, %.lr.ph125
  %indvars.iv142 = phi i64 [ 0, %.lr.ph125.preheader ], [ %indvars.iv.next143, %.lr.ph125 ]
  %49 = getelementptr inbounds nuw i32, ptr %1, i64 %indvars.iv142
  %50 = load i32, ptr %49, align 4, !tbaa !3
  %51 = getelementptr inbounds nuw i32, ptr %4, i64 %indvars.iv142
  %52 = lshr i32 %50, %11
  store i32 %52, ptr %51, align 4, !tbaa !3
  %indvars.iv.next143 = add nuw nsw i64 %indvars.iv142, 1
  %53 = getelementptr inbounds nuw i32, ptr %1, i64 %indvars.iv.next143
  %54 = load i32, ptr %53, align 4, !tbaa !3
  %55 = shl i32 %54, %narrow
  %56 = or disjoint i32 %55, %52
  store i32 %56, ptr %51, align 4, !tbaa !3
  %exitcond146.not = icmp eq i64 %indvars.iv.next143, %wide.trip.count145
  br i1 %exitcond146.not, label %._crit_edge126, label %.lr.ph125, !llvm.loop !21

._crit_edge126:                                   ; preds = %.lr.ph125, %46
  %57 = zext i32 %48 to i64
  %58 = getelementptr inbounds nuw i32, ptr %1, i64 %57
  %59 = load i32, ptr %58, align 4, !tbaa !3
  %60 = getelementptr inbounds nuw i32, ptr %4, i64 %57
  %61 = lshr i32 %59, %11
  store i32 %61, ptr %60, align 4, !tbaa !3
  br i1 %47, label %62, label %.loopexit

62:                                               ; preds = %._crit_edge126
  %63 = zext i32 %spec.select115 to i64
  %64 = getelementptr inbounds nuw i32, ptr %1, i64 %63
  %65 = load i32, ptr %64, align 4, !tbaa !3
  %66 = shl i32 %65, %narrow
  %67 = or disjoint i32 %66, %61
  store i32 %67, ptr %60, align 4, !tbaa !3
  br label %.loopexit

.loopexit:                                        ; preds = %.lr.ph122, %40, %._crit_edge126, %62, %33, %._crit_edge
  %.2 = phi i32 [ %12, %33 ], [ %12, %._crit_edge ], [ %12, %62 ], [ %12, %._crit_edge126 ], [ 0, %40 ], [ %spec.select114, %.lr.ph122 ]
  %68 = icmp ult i32 %.2, %3
  br i1 %68, label %.lr.ph130.preheader, label %_Z5resetjPj.exit

.lr.ph130.preheader:                              ; preds = %.loopexit
  %69 = zext i32 %.2 to i64
  %70 = shl nuw nsw i64 %69, 2
  %scevgep = getelementptr i8, ptr %4, i64 %70
  %71 = xor i32 %.2, -1
  %72 = add i32 %3, %71
  %73 = zext i32 %72 to i64
  %74 = shl nuw nsw i64 %73, 2
  %75 = add nuw nsw i64 %74, 4
  tail call void @llvm.memset.p0.i64(ptr noundef nonnull align 4 dereferenceable(1) %scevgep, i8 0, i64 %75, i1 false), !tbaa !3
  br label %_Z5resetjPj.exit

_Z5resetjPj.exit:                                 ; preds = %.lr.ph130.preheader, %.loopexit, %.lr.ph.preheader.i, %7
  ret void
}